target datalayout = "e-m:e-p270:32:32-p271:32:32-p272:64:64-i64:64-i128:128-f80:128-n8:16:32:64-S128"
target triple = "x86_64-pc-linux-gnu"

%struct.rb_data_type_struct = type { ptr, %struct.anon, ptr, ptr, i64 }
%struct.anon = type { ptr, ptr, ptr, ptr, [1 x ptr] }

@eECError = internal global i64 0, align 8
@rb_eRuntimeError = external global i64, align 8
@ossl_evp_pkey_type = external constant %struct.rb_data_type_struct, align 8
@.str.66 = private unnamed_addr constant [25 x i8] c"PKEY wasn't initialized!\00", align 1
@.str.67 = private unnamed_addr constant [23 x i8] c"THIS IS NOT A EC PKEY!\00", align 1
@.str.74 = private unnamed_addr constant [33 x i8] c"can't export - no public key set\00", align 1

; Function Attrs: nounwind sspstrong uwtable
define internal i64 @ossl_ec_key_export(i32 noundef %0, ptr noundef %1, i64 noundef %2) #0 {
  %4 = alloca i64, align 8
  %5 = alloca i32, align 4
  %6 = alloca ptr, align 8
  %7 = alloca i64, align 8
  %8 = alloca ptr, align 8
  %9 = alloca ptr, align 8
  %10 = alloca i32, align 4
  store i32 %0, ptr %5, align 4, !tbaa !10
  store ptr %1, ptr %6, align 8, !tbaa !29
  store i64 %2, ptr %7, align 8, !tbaa !6
  call void @llvm.lifetime.start.p0(i64 8, ptr %8) #19
  br label %11

11:                                               ; preds = %3
  call void @llvm.lifetime.start.p0(i64 8, ptr %9) #19
  br label %12

12:                                               ; preds = %11
  br label %13

13:                                               ; preds = %12
  %14 = load i64, ptr %7, align 8, !tbaa !6
  %15 = call ptr @rb_check_typeddata(i64 noundef %14, ptr noundef @ossl_evp_pkey_type)
  store ptr %15, ptr %9, align 8, !tbaa !23
  %16 = load ptr, ptr %9, align 8, !tbaa !23
  %17 = icmp ne ptr %16, null
  br i1 %17, label %20, label %18

18:                                               ; preds = %13
  %19 = load i64, ptr @rb_eRuntimeError, align 8, !tbaa !6
  call void (i64, ptr, ...) @rb_raise(i64 noundef %19, ptr noundef @.str.66) #20
  unreachable

20:                                               ; preds = %13
  br label %21

21:                                               ; preds = %20
  br label %22

22:                                               ; preds = %21
  %23 = load ptr, ptr %9, align 8, !tbaa !23
  %24 = call i32 @EVP_PKEY_get_base_id(ptr noundef %23)
  %25 = icmp ne i32 %24, 408
  br i1 %25, label %26, label %28

26:                                               ; preds = %22
  %27 = load i64, ptr @rb_eRuntimeError, align 8, !tbaa !6
  call void (i64, ptr, ...) @ossl_raise(i64 noundef %27, ptr noundef @.str.67) #20
  unreachable

28:                                               ; preds = %22
  br label %29

29:                                               ; preds = %28
  br label %30

30:                                               ; preds = %29
  %31 = load ptr, ptr %9, align 8, !tbaa !23
  %32 = call ptr @EVP_PKEY_get0_EC_KEY(ptr noundef %31)
  store ptr %32, ptr %8, align 8, !tbaa !21
  call void @llvm.lifetime.end.p0(i64 8, ptr %9) #19
  br label %33

33:                                               ; preds = %30
  br label %34

34:                                               ; preds = %33
  %35 = load ptr, ptr %8, align 8, !tbaa !21
  %36 = call ptr @EC_KEY_get0_public_key(ptr noundef %35)
  %37 = icmp eq ptr %36, null
  br i1 %37, label %38, label %40

38:                                               ; preds = %34
  %39 = load i64, ptr @eECError, align 8, !tbaa !6
  call void (i64, ptr, ...) @ossl_raise(i64 noundef %39, ptr noundef @.str.74) #20
  unreachable

40:                                               ; preds = %34
  %41 = load ptr, ptr %8, align 8, !tbaa !21
  %42 = call ptr @EC_KEY_get0_private_key(ptr noundef %41)
  %43 = icmp ne ptr %42, null
  br i1 %43, label %44, label %49

44:                                               ; preds = %40
  %45 = load i32, ptr %5, align 4, !tbaa !10
  %46 = load ptr, ptr %6, align 8, !tbaa !29
  %47 = load i64, ptr %7, align 8, !tbaa !6
  %48 = call i64 @ossl_pkey_export_traditional(i32 noundef %45, ptr noundef %46, i64 noundef %47, i32 noundef 0)
  store i64 %48, ptr %4, align 8
  store i32 1, ptr %10, align 4
  br label %52

49:                                               ; preds = %40
  %50 = load i64, ptr %7, align 8, !tbaa !6
  %51 = call i64 @ossl_pkey_export_spki(i64 noundef %50, i32 noundef 0)
  store i64 %51, ptr %4, align 8
  store i32 1, ptr %10, align 4
  br label %52

52:                                               ; preds = %49, %44
  call void @llvm.lifetime.end.p0(i64 8, ptr %8) #19
  %53 = load i64, ptr %4, align 8
  ret i64 %53
}