; Function Attrs: nounwind sspstrong uwtable
define internal i64 @ossl_ec_key_export(i32 noundef %0, ptr noundef %1, i64 noundef %2) #0 {
  %4 = tail call ptr @rb_check_typeddata(i64 noundef %2, ptr noundef nonnull @ossl_evp_pkey_type) #7
  %.not = icmp eq ptr %4, null
  br i1 %.not, label %5, label %7

5:                                                ; preds = %3
  %6 = load i64, ptr @rb_eRuntimeError, align 8, !tbaa !6
  tail call void (i64, ptr, ...) @rb_raise(i64 noundef %6, ptr noundef nonnull @.str.66) #9
  unreachable

7:                                                ; preds = %3
  %8 = tail call i32 @EVP_PKEY_get_base_id(ptr noundef nonnull %4) #7
  %.not11 = icmp eq i32 %8, 408
  br i1 %.not11, label %11, label %9

9:                                                ; preds = %7
  %10 = load i64, ptr @rb_eRuntimeError, align 8, !tbaa !6
  tail call void (i64, ptr, ...) @ossl_raise(i64 noundef %10, ptr noundef nonnull @.str.67) #9
  unreachable

11:                                               ; preds = %7
  %12 = tail call ptr @EVP_PKEY_get0_EC_KEY(ptr noundef nonnull %4) #7
  %13 = tail call ptr @EC_KEY_get0_public_key(ptr noundef %12) #7
  %14 = icmp eq ptr %13, null
  br i1 %14, label %15, label %17

15:                                               ; preds = %11
  %16 = load i64, ptr @eECError, align 8, !tbaa !6
  tail call void (i64, ptr, ...) @ossl_raise(i64 noundef %16, ptr noundef nonnull @.str.74) #9
  unreachable

17:                                               ; preds = %11
  %18 = tail call ptr @EC_KEY_get0_private_key(ptr noundef %12) #7
  %.not12 = icmp eq ptr %18, null
  br i1 %.not12, label %21, label %19

19:                                               ; preds = %17
  %20 = tail call i64 @ossl_pkey_export_traditional(i32 noundef %0, ptr noundef %1, i64 noundef %2, i32 noundef 0) #7
  br label %23

21:                                               ; preds = %17
  %22 = tail call i64 @ossl_pkey_export_spki(i64 noundef %2, i32 noundef 0) #7
  br label %23

23:                                               ; preds = %21, %19
  %.0 = phi i64 [ %20, %19 ], [ %22, %21 ]
  ret i64 %.0
}